; Function Attrs: mustprogress nounwind uwtable
define dso_local void @_ZN5clang20OpenACCClausePrinter18VisitDefaultClauseERKNS_20OpenACCDefaultClauseE(ptr noundef nonnull readonly align 8 captures(none) dereferenceable(16) %0, ptr noundef nonnull readonly align 8 captures(none) dereferenceable(28) %1) local_unnamed_addr #1 align 2 {
  %3 = load ptr, ptr %0, align 8
  %4 = getelementptr inbounds nuw i8, ptr %3, i64 24
  %5 = load ptr, ptr %4, align 8
  %6 = getelementptr inbounds nuw i8, ptr %3, i64 32
  %7 = load ptr, ptr %6, align 8
  %8 = ptrtoint ptr %5 to i64
  %9 = ptrtoint ptr %7 to i64
  %10 = sub i64 %8, %9
  %11 = icmp ult i64 %10, 8
  br i1 %11, label %12, label %14

12:                                               ; preds = %2
  %13 = tail call noundef nonnull align 8 dereferenceable(48) ptr @_ZN4llvm11raw_ostream5writeEPKcm(ptr noundef nonnull align 8 dereferenceable(48) %3, ptr noundef nonnull @.str.1, i64 noundef 8) #14
  %.phi.trans.insert = getelementptr inbounds nuw i8, ptr %13, i64 32
  %.pre = load ptr, ptr %.phi.trans.insert, align 8
  br label %_ZN4llvm11raw_ostreamlsEPKc.exit

14:                                               ; preds = %2
  store i64 2915074110216627556, ptr %7, align 1
  %15 = load ptr, ptr %6, align 8
  %16 = getelementptr inbounds nuw i8, ptr %15, i64 8
  store ptr %16, ptr %6, align 8
  br label %_ZN4llvm11raw_ostreamlsEPKc.exit

_ZN4llvm11raw_ostreamlsEPKc.exit:                 ; preds = %12, %14
  %17 = phi ptr [ %.pre, %12 ], [ %16, %14 ]
  %.0.i.i = phi ptr [ %13, %12 ], [ %3, %14 ]
  %18 = getelementptr inbounds nuw i8, ptr %1, i64 24
  %19 = load i32, ptr %18, align 8
  %20 = getelementptr inbounds nuw i8, ptr %.0.i.i, i64 24
  %21 = load ptr, ptr %20, align 8
  %22 = getelementptr inbounds nuw i8, ptr %.0.i.i, i64 32
  %23 = ptrtoint ptr %21 to i64
  %24 = ptrtoint ptr %17 to i64
  %25 = sub i64 %23, %24
  switch i32 %19, label %47 [
    i32 0, label %26
    i32 1, label %33
    i32 2, label %40
  ]

26:                                               ; preds = %_ZN4llvm11raw_ostreamlsEPKc.exit
  %27 = icmp ult i64 %25, 4
  br i1 %27, label %28, label %30

28:                                               ; preds = %26
  %29 = tail call noundef nonnull align 8 dereferenceable(48) ptr @_ZN4llvm11raw_ostream5writeEPKcm(ptr noundef nonnull align 8 dereferenceable(48) %.0.i.i, ptr noundef nonnull @.str.27, i64 noundef 4) #14
  br label %_ZN5clanglsERN4llvm11raw_ostreamENS_24OpenACCDefaultClauseKindE.exit

30:                                               ; preds = %26
  store i32 1701736302, ptr %17, align 1
  %31 = load ptr, ptr %22, align 8
  %32 = getelementptr inbounds nuw i8, ptr %31, i64 4
  store ptr %32, ptr %22, align 8
  br label %_ZN5clanglsERN4llvm11raw_ostreamENS_24OpenACCDefaultClauseKindE.exit

33:                                               ; preds = %_ZN4llvm11raw_ostreamlsEPKc.exit
  %34 = icmp ult i64 %25, 7
  br i1 %34, label %35, label %37

35:                                               ; preds = %33
  %36 = tail call noundef nonnull align 8 dereferenceable(48) ptr @_ZN4llvm11raw_ostream5writeEPKcm(ptr noundef nonnull align 8 dereferenceable(48) %.0.i.i, ptr noundef nonnull @.str.28, i64 noundef 7) #14
  br label %_ZN5clanglsERN4llvm11raw_ostreamENS_24OpenACCDefaultClauseKindE.exit

37:                                               ; preds = %33
  tail call void @llvm.memcpy.p0.p0.i64(ptr noundef nonnull align 1 dereferenceable(7) %17, ptr noundef nonnull align 1 dereferenceable(7) @.str.28, i64 7, i1 false)
  %38 = load ptr, ptr %22, align 8
  %39 = getelementptr inbounds nuw i8, ptr %38, i64 7
  store ptr %39, ptr %22, align 8
  br label %_ZN5clanglsERN4llvm11raw_ostreamENS_24OpenACCDefaultClauseKindE.exit

40:                                               ; preds = %_ZN4llvm11raw_ostreamlsEPKc.exit
  %41 = icmp ult i64 %25, 9
  br i1 %41, label %42, label %44

42:                                               ; preds = %40
  %43 = tail call noundef nonnull align 8 dereferenceable(48) ptr @_ZN4llvm11raw_ostream5writeEPKcm(ptr noundef nonnull align 8 dereferenceable(48) %.0.i.i, ptr noundef nonnull @.str.29, i64 noundef 9) #14
  br label %_ZN5clanglsERN4llvm11raw_ostreamENS_24OpenACCDefaultClauseKindE.exit

44:                                               ; preds = %40
  tail call void @llvm.memcpy.p0.p0.i64(ptr noundef nonnull align 1 dereferenceable(9) %17, ptr noundef nonnull align 1 dereferenceable(9) @.str.29, i64 9, i1 false)
  %45 = load ptr, ptr %22, align 8
  %46 = getelementptr inbounds nuw i8, ptr %45, i64 9
  store ptr %46, ptr %22, align 8
  br label %_ZN5clanglsERN4llvm11raw_ostreamENS_24OpenACCDefaultClauseKindE.exit

47:                                               ; preds = %_ZN4llvm11raw_ostreamlsEPKc.exit
  unreachable

_ZN5clanglsERN4llvm11raw_ostreamENS_24OpenACCDefaultClauseKindE.exit: ; preds = %28, %30, %35, %37, %42, %44
  %.0.i.i2 = phi ptr [ %29, %28 ], [ %.0.i.i, %30 ], [ %36, %35 ], [ %.0.i.i, %37 ], [ %43, %42 ], [ %.0.i.i, %44 ]
  %48 = getelementptr inbounds nuw i8, ptr %.0.i.i2, i64 24
  %49 = load ptr, ptr %48, align 8
  %50 = getelementptr inbounds nuw i8, ptr %.0.i.i2, i64 32
  %51 = load ptr, ptr %50, align 8
  %52 = icmp eq ptr %49, %51
  br i1 %52, label %53, label %55

53:                                               ; preds = %_ZN5clanglsERN4llvm11raw_ostreamENS_24OpenACCDefaultClauseKindE.exit
  %54 = tail call noundef nonnull align 8 dereferenceable(48) ptr @_ZN4llvm11raw_ostream5writeEPKcm(ptr noundef nonnull align 8 dereferenceable(48) %.0.i.i2, ptr noundef nonnull @.str.2, i64 noundef 1) #14
  br label %_ZN4llvm11raw_ostreamlsEPKc.exit5

55:                                               ; preds = %_ZN5clanglsERN4llvm11raw_ostreamENS_24OpenACCDefaultClauseKindE.exit
  store i8 41, ptr %51, align 1
  %56 = load ptr, ptr %50, align 8
  %57 = getelementptr inbounds nuw i8, ptr %56, i64 1
  store ptr %57, ptr %50, align 8
  br label %_ZN4llvm11raw_ostreamlsEPKc.exit5

_ZN4llvm11raw_ostreamlsEPKc.exit5:                ; preds = %53, %55
  ret void
}